target datalayout = "e-m:e-p270:32:32-p271:32:32-p272:64:64-i64:64-i128:128-f80:128-n8:16:32:64-S128"
target triple = "x86_64-pc-linux-gnu"

%struct._object = type { %union.anon, ptr }
%union.anon = type { i64 }
%struct.instruction_sequence = type { %struct._object, ptr, i32, i32, i32, ptr, i32, ptr }
%struct._PyInstruction = type { i32, i32, %struct._Py_SourceLocation, %struct._PyExceptHandlerInfo, i32, i32 }
%struct._Py_SourceLocation = type { i32, i32, i32, i32 }
%struct._PyExceptHandlerInfo = type { i32, i32, i32 }

; Function Attrs: nounwind uwtable
define internal i32 @instr_sequence_next_inst(ptr noundef %0) #0 {
  %2 = alloca i32, align 4
  %3 = alloca ptr, align 8
  store ptr %0, ptr %3, align 8, !tbaa !4
  %4 = load ptr, ptr %3, align 8, !tbaa !4
  %5 = getelementptr inbounds nuw %struct.instruction_sequence, ptr %4, i32 0, i32 3
  %6 = load i32, ptr %5, align 4, !tbaa !23
  %7 = add i32 %6, 1
  %8 = load ptr, ptr %3, align 8, !tbaa !4
  %9 = getelementptr inbounds nuw %struct.instruction_sequence, ptr %8, i32 0, i32 1
  %10 = load ptr, ptr %3, align 8, !tbaa !4
  %11 = getelementptr inbounds nuw %struct.instruction_sequence, ptr %10, i32 0, i32 2
  %12 = call i32 @_PyCompile_EnsureArrayLargeEnough(i32 noundef %7, ptr noundef %9, ptr noundef %11, i32 noundef 100, i64 noundef 44)
  %13 = icmp eq i32 %12, -1
  br i1 %13, label %14, label %15

14:                                               ; preds = %1
  store i32 -1, ptr %2, align 4
  br label %20

15:                                               ; preds = %1
  %16 = load ptr, ptr %3, align 8, !tbaa !4
  %17 = getelementptr inbounds nuw %struct.instruction_sequence, ptr %16, i32 0, i32 3
  %18 = load i32, ptr %17, align 4, !tbaa !23
  %19 = add i32 %18, 1
  store i32 %19, ptr %17, align 4, !tbaa !23
  store i32 %18, ptr %2, align 4
  br label %20

20:                                               ; preds = %15, %14
  %21 = load i32, ptr %2, align 4
  ret i32 %21
}

; Function Attrs: nounwind uwtable
define hidden i32 @_PyInstructionSequence_Addop(ptr noundef %0, i32 noundef %1, i32 noundef %2, i64 %3, i64 %4) #0 {
  %6 = alloca i32, align 4
  %7 = alloca %struct._Py_SourceLocation, align 4
  %8 = alloca ptr, align 8
  %9 = alloca i32, align 4
  %10 = alloca i32, align 4
  %11 = alloca i32, align 4
  %12 = alloca i32, align 4
  %13 = alloca ptr, align 8
  %14 = getelementptr inbounds nuw { i64, i64 }, ptr %7, i32 0, i32 0
  store i64 %3, ptr %14, align 4
  %15 = getelementptr inbounds nuw { i64, i64 }, ptr %7, i32 0, i32 1
  store i64 %4, ptr %15, align 4
  store ptr %0, ptr %8, align 8, !tbaa !4
  store i32 %1, ptr %9, align 4, !tbaa !18
  store i32 %2, ptr %10, align 4, !tbaa !18
  call void @llvm.lifetime.start.p0(i64 4, ptr %11) #6
  %16 = load ptr, ptr %8, align 8, !tbaa !4
  %17 = call i32 @instr_sequence_next_inst(ptr noundef %16)
  store i32 %17, ptr %11, align 4, !tbaa !18
  %18 = load i32, ptr %11, align 4, !tbaa !18
  %19 = icmp eq i32 %18, -1
  br i1 %19, label %20, label %21

20:                                               ; preds = %5
  store i32 -1, ptr %6, align 4
  store i32 1, ptr %12, align 4
  br label %36

21:                                               ; preds = %5
  call void @llvm.lifetime.start.p0(i64 8, ptr %13) #6
  %22 = load ptr, ptr %8, align 8, !tbaa !4
  %23 = getelementptr inbounds nuw %struct.instruction_sequence, ptr %22, i32 0, i32 1
  %24 = load ptr, ptr %23, align 8, !tbaa !24
  %25 = load i32, ptr %11, align 4, !tbaa !18
  %26 = sext i32 %25 to i64
  %27 = getelementptr %struct._PyInstruction, ptr %24, i64 %26
  store ptr %27, ptr %13, align 8, !tbaa !25
  %28 = load i32, ptr %9, align 4, !tbaa !18
  %29 = load ptr, ptr %13, align 8, !tbaa !25
  %30 = getelementptr inbounds nuw %struct._PyInstruction, ptr %29, i32 0, i32 0
  store i32 %28, ptr %30, align 4, !tbaa !26
  %31 = load i32, ptr %10, align 4, !tbaa !18
  %32 = load ptr, ptr %13, align 8, !tbaa !25
  %33 = getelementptr inbounds nuw %struct._PyInstruction, ptr %32, i32 0, i32 1
  store i32 %31, ptr %33, align 4, !tbaa !33
  %34 = load ptr, ptr %13, align 8, !tbaa !25
  %35 = getelementptr inbounds nuw %struct._PyInstruction, ptr %34, i32 0, i32 2
  call void @llvm.memcpy.p0.p0.i64(ptr align 4 %35, ptr align 4 %7, i64 16, i1 false), !tbaa.struct !36
  store i32 0, ptr %6, align 4
  store i32 1, ptr %12, align 4
  call void @llvm.lifetime.end.p0(i64 8, ptr %13) #6
  br label %36

36:                                               ; preds = %21, %20
  call void @llvm.lifetime.end.p0(i64 4, ptr %11) #6
  %37 = load i32, ptr %6, align 4
  ret i32 %37
}