; Function Attrs: nounwind uwtable
define hidden range(i32 -1, 1) i32 @_PyInstructionSequence_Addop(ptr noundef %0, i32 noundef %1, i32 noundef %2, i64 %3, i64 %4) local_unnamed_addr #1 {
  %6 = getelementptr inbounds nuw i8, ptr %0, i64 28
  %7 = load i32, ptr %6, align 4, !tbaa !16
  %8 = add i32 %7, 1
  %9 = getelementptr inbounds nuw i8, ptr %0, i64 16
  %10 = getelementptr inbounds nuw i8, ptr %0, i64 24
  %11 = tail call i32 @_PyCompile_EnsureArrayLargeEnough(i32 noundef %8, ptr noundef nonnull %9, ptr noundef nonnull %10, i32 noundef 100, i64 noundef 44) #6
  %12 = icmp eq i32 %11, -1
  br i1 %12, label %instr_sequence_next_inst.exit.thread, label %instr_sequence_next_inst.exit

instr_sequence_next_inst.exit:                    ; preds = %5
  %13 = load i32, ptr %6, align 4, !tbaa !16
  %14 = add i32 %13, 1
  store i32 %14, ptr %6, align 4, !tbaa !16
  %15 = icmp eq i32 %13, -1
  br i1 %15, label %instr_sequence_next_inst.exit.thread, label %16

16:                                               ; preds = %instr_sequence_next_inst.exit
  %17 = load ptr, ptr %9, align 8, !tbaa !20
  %18 = sext i32 %13 to i64
  %19 = getelementptr %struct._PyInstruction, ptr %17, i64 %18
  store i32 %1, ptr %19, align 4, !tbaa !21
  %20 = getelementptr inbounds nuw i8, ptr %19, i64 4
  store i32 %2, ptr %20, align 4, !tbaa !28
  %21 = getelementptr inbounds nuw i8, ptr %19, i64 8
  store i64 %3, ptr %21, align 4
  %.sroa.2.0..sroa_idx = getelementptr inbounds nuw i8, ptr %19, i64 16
  store i64 %4, ptr %.sroa.2.0..sroa_idx, align 4
  br label %instr_sequence_next_inst.exit.thread

instr_sequence_next_inst.exit.thread:             ; preds = %5, %instr_sequence_next_inst.exit, %16
  %.0 = phi i32 [ 0, %16 ], [ -1, %instr_sequence_next_inst.exit ], [ -1, %5 ]
  ret i32 %.0
}